target datalayout = "e-m:e-p270:32:32-p271:32:32-p272:64:64-i64:64-i128:128-f80:128-n8:16:32:64-S128"
target triple = "x86_64-pc-linux-gnu"

%"class.toku::locktree_manager" = type { i64, i64, %"struct.toku::lt_counters", ptr, ptr, ptr, ptr, %"class.toku::omt", %"class.std::shared_ptr", %struct.toku_mutex_t, %struct.toku_mutex_t, i64, i64, i64, i64, i64, i64, i64, %"class.toku::locktree_manager::locktree_escalator" }
%"struct.toku::lt_counters" = type { i64, i64, i64, i64, i64 }
%"class.toku::omt" = type { i8, i32, %union.anon }
%union.anon = type { %"struct.toku::omt<toku::locktree *>::omt_array" }
%"struct.toku::omt<toku::locktree *>::omt_array" = type { i32, i32, ptr }
%"class.std::shared_ptr" = type { %"class.std::__shared_ptr" }
%"class.std::__shared_ptr" = type { ptr, %"class.std::__shared_count" }
%"class.std::__shared_count" = type { ptr }
%struct.toku_mutex_t = type { %union.pthread_mutex_t, ptr }
%union.pthread_mutex_t = type { %struct.__pthread_mutex_s }
%struct.__pthread_mutex_s = type { i32, i32, i32, i32, i32, i16, i16, %struct.__pthread_internal_list }
%struct.__pthread_internal_list = type { ptr, ptr }
%"class.toku::locktree_manager::locktree_escalator" = type <{ %struct.toku_mutex_t, %struct.toku_cond_t, i8, [7 x i8] }>
%struct.toku_cond_t = type { %union.pthread_cond_t, ptr }
%union.pthread_cond_t = type { %struct.__pthread_cond_s }
%struct.__pthread_cond_s = type { %union.__atomic_wide_counter, %union.__atomic_wide_counter, [2 x i32], [2 x i32], i32, i32, [2 x i32] }
%union.__atomic_wide_counter = type { i64 }

; Function Attrs: mustprogress uwtable
define noundef ptr @_ZN4toku16locktree_manager17locktree_map_findERK13DICTIONARY_ID(ptr noundef nonnull align 8 dereferenceable(392) %0, ptr noundef nonnull align 8 dereferenceable(8) %1) #0 align 2 {
  %3 = alloca ptr, align 8
  %4 = alloca ptr, align 8
  %5 = alloca ptr, align 8
  %6 = alloca i32, align 4
  store ptr %0, ptr %3, align 8, !tbaa !4
  store ptr %1, ptr %4, align 8, !tbaa !60
  %7 = load ptr, ptr %3, align 8
  call void @llvm.lifetime.start.p0(i64 8, ptr %5) #17
  call void @llvm.lifetime.start.p0(i64 4, ptr %6) #17
  %8 = getelementptr inbounds nuw %"class.toku::locktree_manager", ptr %7, i32 0, i32 7
  %9 = load ptr, ptr %4, align 8, !tbaa !60
  %10 = call noundef i32 @_ZNK4toku3omtIPNS_8locktreeES2_Lb0EE9find_zeroI13DICTIONARY_IDTnPFiRKS2_RKT_EXadL_ZNS_16locktree_manager15find_by_dict_idES7_RKS5_EEEEiSA_PS2_Pj(ptr noundef nonnull align 8 dereferenceable(24) %8, ptr noundef nonnull align 8 dereferenceable(8) %9, ptr noundef %5, ptr noundef null)
  store i32 %10, ptr %6, align 4, !tbaa !40
  %11 = load i32, ptr %6, align 4, !tbaa !40
  %12 = icmp eq i32 %11, 0
  br i1 %12, label %13, label %15

13:                                               ; preds = %2
  %14 = load ptr, ptr %5, align 8, !tbaa !62
  br label %16

15:                                               ; preds = %2
  br label %16

16:                                               ; preds = %15, %13
  %17 = phi ptr [ %14, %13 ], [ null, %15 ]
  call void @llvm.lifetime.end.p0(i64 4, ptr %6) #17
  call void @llvm.lifetime.end.p0(i64 8, ptr %5) #17
  ret ptr %17
}