; Function Attrs: mustprogress uwtable
define noundef ptr @_ZN4toku16locktree_manager17locktree_map_findERK13DICTIONARY_ID(ptr noundef nonnull align 8 dereferenceable(392) %0, ptr noundef nonnull align 8 dereferenceable(8) %1) local_unnamed_addr #0 align 2 {
  %3 = alloca ptr, align 8
  call void @llvm.lifetime.start.p0(i64 8, ptr nonnull %3) #14
  %4 = getelementptr inbounds nuw i8, ptr %0, i64 88
  %5 = call noundef i32 @_ZNK4toku3omtIPNS_8locktreeES2_Lb0EE9find_zeroI13DICTIONARY_IDTnPFiRKS2_RKT_EXadL_ZNS_16locktree_manager15find_by_dict_idES7_RKS5_EEEEiSA_PS2_Pj(ptr noundef nonnull align 8 dereferenceable(24) %4, ptr noundef nonnull align 8 dereferenceable(8) %1, ptr noundef nonnull %3, ptr noundef null)
  %6 = icmp eq i32 %5, 0
  %7 = load ptr, ptr %3, align 8
  %8 = select i1 %6, ptr %7, ptr null
  call void @llvm.lifetime.end.p0(i64 8, ptr nonnull %3) #14
  ret ptr %8
}